target datalayout = "e-m:e-p270:32:32-p271:32:32-p272:64:64-i64:64-i128:128-f80:128-n8:16:32:64-S128"
target triple = "x86_64-pc-linux-gnu"

@libctx = internal global ptr null, align 8
@.str.14 = private unnamed_addr constant [30 x i8] c"../openssl/test/quicapitest.c\00", align 1
@.str.153 = private unnamed_addr constant [62 x i8] c"ctx = SSL_CTX_new_ex(libctx, NULL, OSSL_QUIC_client_method())\00", align 1
@.str.154 = private unnamed_addr constant [58 x i8] c"SSL_CTX_set_tlsext_use_srtp(ctx, \22SRTP_AEAD_AES_128_GCM\22)\00", align 1
@.str.155 = private unnamed_addr constant [22 x i8] c"SRTP_AEAD_AES_128_GCM\00", align 1
@.str.156 = private unnamed_addr constant [75 x i8] c"SSL_CTX_set_ciphersuites(ctx, QUIC_CIPHERSUITES \22:\22 NON_QUIC_CIPHERSUITES)\00", align 1
@.str.157 = private unnamed_addr constant [182 x i8] c"TLS_AES_128_GCM_SHA256:TLS_AES_256_GCM_SHA384:TLS_CHACHA20_POLY1305_SHA256:TLS_AES_128_CCM_SHA256:TLS_AES_256_CCM_SHA384:TLS_AES_128_CCM_8_SHA256:TLS_SHA256_SHA256:TLS_SHA384_SHA384\00", align 1

; Function Attrs: nounwind uwtable
define internal i32 @test_quic_forbidden_apis_ctx() #0 {
  %1 = alloca i32, align 4
  %2 = alloca ptr, align 8
  call void @llvm.lifetime.start.p0(i64 4, ptr %1) #8
  store i32 0, ptr %1, align 4, !tbaa !13
  call void @llvm.lifetime.start.p0(i64 8, ptr %2) #8
  store ptr null, ptr %2, align 8, !tbaa !15
  %3 = load ptr, ptr @libctx, align 8, !tbaa !4
  %4 = call ptr @OSSL_QUIC_client_method()
  %5 = call ptr @SSL_CTX_new_ex(ptr noundef %3, ptr noundef null, ptr noundef %4)
  store ptr %5, ptr %2, align 8, !tbaa !15
  %6 = call i32 @test_ptr(ptr noundef @.str.14, i32 noundef 720, ptr noundef @.str.153, ptr noundef %5)
  %7 = icmp ne i32 %6, 0
  br i1 %7, label %9, label %8

8:                                                ; preds = %0
  br label %26

9:                                                ; preds = %0
  %10 = load ptr, ptr %2, align 8, !tbaa !15
  %11 = call i32 @SSL_CTX_set_tlsext_use_srtp(ptr noundef %10, ptr noundef @.str.155)
  %12 = icmp ne i32 %11, 0
  %13 = zext i1 %12 to i32
  %14 = call i32 @test_true(ptr noundef @.str.14, i32 noundef 725, ptr noundef @.str.154, i32 noundef %13)
  %15 = icmp ne i32 %14, 0
  br i1 %15, label %17, label %16

16:                                               ; preds = %9
  br label %26

17:                                               ; preds = %9
  %18 = load ptr, ptr %2, align 8, !tbaa !15
  %19 = call i32 @SSL_CTX_set_ciphersuites(ptr noundef %18, ptr noundef @.str.157)
  %20 = icmp ne i32 %19, 0
  %21 = zext i1 %20 to i32
  %22 = call i32 @test_true(ptr noundef @.str.14, i32 noundef 747, ptr noundef @.str.156, i32 noundef %21)
  %23 = icmp ne i32 %22, 0
  br i1 %23, label %25, label %24

24:                                               ; preds = %17
  br label %26

25:                                               ; preds = %17
  store i32 1, ptr %1, align 4, !tbaa !13
  br label %26

26:                                               ; preds = %25, %24, %16, %8
  %27 = load ptr, ptr %2, align 8, !tbaa !15
  call void @SSL_CTX_free(ptr noundef %27)
  %28 = load i32, ptr %1, align 4, !tbaa !13
  call void @llvm.lifetime.end.p0(i64 8, ptr %2) #8
  call void @llvm.lifetime.end.p0(i64 4, ptr %1) #8
  ret i32 %28
}