; Function Attrs: nounwind uwtable
define internal range(i32 0, 2) i32 @test_quic_forbidden_apis_ctx() #1 {
  %1 = load ptr, ptr @libctx, align 8, !tbaa !4
  %2 = tail call ptr @OSSL_QUIC_client_method() #10
  %3 = tail call ptr @SSL_CTX_new_ex(ptr noundef %1, ptr noundef null, ptr noundef %2) #10
  %4 = tail call i32 @test_ptr(ptr noundef nonnull @.str.14, i32 noundef 720, ptr noundef nonnull @.str.153, ptr noundef %3) #10
  %.not = icmp eq i32 %4, 0
  br i1 %.not, label %15, label %5

5:                                                ; preds = %0
  %6 = tail call i32 @SSL_CTX_set_tlsext_use_srtp(ptr noundef %3, ptr noundef nonnull @.str.155) #10
  %7 = icmp ne i32 %6, 0
  %8 = zext i1 %7 to i32
  %9 = tail call i32 @test_true(ptr noundef nonnull @.str.14, i32 noundef 725, ptr noundef nonnull @.str.154, i32 noundef %8) #10
  %.not3 = icmp eq i32 %9, 0
  br i1 %.not3, label %15, label %10

10:                                               ; preds = %5
  %11 = tail call i32 @SSL_CTX_set_ciphersuites(ptr noundef %3, ptr noundef nonnull @.str.157) #10
  %12 = icmp ne i32 %11, 0
  %13 = zext i1 %12 to i32
  %14 = tail call i32 @test_true(ptr noundef nonnull @.str.14, i32 noundef 747, ptr noundef nonnull @.str.156, i32 noundef %13) #10
  %.not4 = icmp ne i32 %14, 0
  %spec.select = zext i1 %.not4 to i32
  br label %15

15:                                               ; preds = %10, %5, %0
  %.0 = phi i32 [ 0, %5 ], [ 0, %0 ], [ %spec.select, %10 ]
  tail call void @SSL_CTX_free(ptr noundef %3) #10
  ret i32 %.0
}